target datalayout = "e-m:e-p270:32:32-p271:32:32-p272:64:64-i64:64-i128:128-f80:128-n8:16:32:64-S128"
target triple = "x86_64-pc-linux-gnu"

@bio_err = external global ptr, align 8
@.str.26 = private unnamed_addr constant [27 x i8] c"../openssl/apps/lib/s_cb.c\00", align 1
@cookie_initialized = internal global i32 0, align 4
@cookie_secret = internal global [16 x i8] zeroinitializer, align 16
@.str.76 = private unnamed_addr constant [36 x i8] c"error setting random cookie secret\0A\00", align 1
@.str.77 = private unnamed_addr constant [13 x i8] c"memory full\0A\00", align 1
@ourpeer = external global ptr, align 8
@.str.78 = private unnamed_addr constant [29 x i8] c"Failed getting peer address\0A\00", align 1
@.str.79 = private unnamed_addr constant [30 x i8] c"assertion failed: length != 0\00", align 1
@.str.80 = private unnamed_addr constant [23 x i8] c"cookie generate buffer\00", align 1
@.str.81 = private unnamed_addr constant [5 x i8] c"HMAC\00", align 1
@.str.82 = private unnamed_addr constant [5 x i8] c"SHA1\00", align 1
@.str.83 = private unnamed_addr constant [51 x i8] c"Error calculating HMAC-SHA1 of buffer with secret\0A\00", align 1

; Function Attrs: nounwind uwtable
define i32 @generate_stateless_cookie_callback(ptr noundef %0, ptr noundef %1, ptr noundef %2) #0 {
  %4 = alloca i32, align 4
  %5 = alloca ptr, align 8
  %6 = alloca ptr, align 8
  %7 = alloca ptr, align 8
  %8 = alloca ptr, align 8
  %9 = alloca i64, align 8
  %10 = alloca i16, align 2
  %11 = alloca ptr, align 8
  %12 = alloca ptr, align 8
  %13 = alloca i32, align 4
  %14 = alloca i32, align 4
  store ptr %0, ptr %5, align 8, !tbaa !27
  store ptr %1, ptr %6, align 8, !tbaa !21
  store ptr %2, ptr %7, align 8, !tbaa !40
  call void @llvm.lifetime.start.p0(i64 8, ptr %8) #10
  store ptr null, ptr %8, align 8, !tbaa !21
  call void @llvm.lifetime.start.p0(i64 8, ptr %9) #10
  store i64 0, ptr %9, align 8, !tbaa !38
  call void @llvm.lifetime.start.p0(i64 2, ptr %10) #10
  call void @llvm.lifetime.start.p0(i64 8, ptr %11) #10
  store ptr null, ptr %11, align 8, !tbaa !65
  call void @llvm.lifetime.start.p0(i64 8, ptr %12) #10
  store ptr null, ptr %12, align 8, !tbaa !65
  call void @llvm.lifetime.start.p0(i64 4, ptr %13) #10
  store i32 0, ptr %13, align 4, !tbaa !3
  %15 = load i32, ptr @cookie_initialized, align 4, !tbaa !3
  %16 = icmp ne i32 %15, 0
  br i1 %16, label %24, label %17

17:                                               ; preds = %3
  %18 = call i32 @RAND_bytes(ptr noundef @cookie_secret, i32 noundef 16)
  %19 = icmp sle i32 %18, 0
  br i1 %19, label %20, label %23

20:                                               ; preds = %17
  %21 = load ptr, ptr @bio_err, align 8, !tbaa !14
  %22 = call i32 (ptr, ptr, ...) @BIO_printf(ptr noundef %21, ptr noundef @.str.76)
  store i32 0, ptr %4, align 4
  store i32 1, ptr %14, align 4
  br label %82

23:                                               ; preds = %17
  store i32 1, ptr @cookie_initialized, align 4, !tbaa !3
  br label %24

24:                                               ; preds = %23, %3
  %25 = load ptr, ptr %5, align 8, !tbaa !27
  %26 = call i32 @SSL_is_dtls(ptr noundef %25)
  %27 = icmp ne i32 %26, 0
  br i1 %27, label %28, label %40

28:                                               ; preds = %24
  %29 = call ptr @BIO_ADDR_new()
  store ptr %29, ptr %12, align 8, !tbaa !65
  store ptr %29, ptr %11, align 8, !tbaa !65
  %30 = load ptr, ptr %12, align 8, !tbaa !65
  %31 = icmp eq ptr %30, null
  br i1 %31, label %32, label %35

32:                                               ; preds = %28
  %33 = load ptr, ptr @bio_err, align 8, !tbaa !14
  %34 = call i32 (ptr, ptr, ...) @BIO_printf(ptr noundef %33, ptr noundef @.str.77)
  store i32 0, ptr %4, align 4
  store i32 1, ptr %14, align 4
  br label %82

35:                                               ; preds = %28
  %36 = load ptr, ptr %5, align 8, !tbaa !27
  %37 = call ptr @SSL_get_rbio(ptr noundef %36)
  %38 = load ptr, ptr %12, align 8, !tbaa !65
  %39 = call i64 @BIO_ctrl(ptr noundef %37, i32 noundef 46, i64 noundef 0, ptr noundef %38)
  br label %42

40:                                               ; preds = %24
  %41 = load ptr, ptr @ourpeer, align 8, !tbaa !65
  store ptr %41, ptr %12, align 8, !tbaa !65
  br label %42

42:                                               ; preds = %40, %35
  %43 = load ptr, ptr %12, align 8, !tbaa !65
  %44 = call i32 @BIO_ADDR_rawaddress(ptr noundef %43, ptr noundef null, ptr noundef %9)
  %45 = icmp ne i32 %44, 0
  br i1 %45, label %50, label %46

46:                                               ; preds = %42
  %47 = load ptr, ptr @bio_err, align 8, !tbaa !14
  %48 = call i32 (ptr, ptr, ...) @BIO_printf(ptr noundef %47, ptr noundef @.str.78)
  %49 = load ptr, ptr %11, align 8, !tbaa !65
  call void @BIO_ADDR_free(ptr noundef %49)
  store i32 0, ptr %4, align 4
  store i32 1, ptr %14, align 4
  br label %82

50:                                               ; preds = %42
  %51 = load i64, ptr %9, align 8, !tbaa !38
  %52 = icmp ne i64 %51, 0
  br i1 %52, label %53, label %54

53:                                               ; preds = %50
  br label %56

54:                                               ; preds = %50
  call void @OPENSSL_die(ptr noundef @.str.79, ptr noundef @.str.26, i32 noundef 882) #11
  unreachable

55:                                               ; No predecessors!
  br label %56

56:                                               ; preds = %55, %53
  %57 = load ptr, ptr %12, align 8, !tbaa !65
  %58 = call zeroext i16 @BIO_ADDR_rawport(ptr noundef %57)
  store i16 %58, ptr %10, align 2, !tbaa !66
  %59 = load i64, ptr %9, align 8, !tbaa !38
  %60 = add i64 %59, 2
  store i64 %60, ptr %9, align 8, !tbaa !38
  %61 = load i64, ptr %9, align 8, !tbaa !38
  %62 = call ptr @app_malloc(i64 noundef %61, ptr noundef @.str.80)
  store ptr %62, ptr %8, align 8, !tbaa !21
  %63 = load ptr, ptr %8, align 8, !tbaa !21
  call void @llvm.memcpy.p0.p0.i64(ptr align 1 %63, ptr align 2 %10, i64 2, i1 false)
  %64 = load ptr, ptr %12, align 8, !tbaa !65
  %65 = load ptr, ptr %8, align 8, !tbaa !21
  %66 = getelementptr inbounds nuw i8, ptr %65, i64 2
  %67 = call i32 @BIO_ADDR_rawaddress(ptr noundef %64, ptr noundef %66, ptr noundef null)
  %68 = load ptr, ptr %8, align 8, !tbaa !21
  %69 = load i64, ptr %9, align 8, !tbaa !38
  %70 = load ptr, ptr %6, align 8, !tbaa !21
  %71 = load ptr, ptr %7, align 8, !tbaa !40
  %72 = call ptr @EVP_Q_mac(ptr noundef null, ptr noundef @.str.81, ptr noundef null, ptr noundef @.str.82, ptr noundef null, ptr noundef @cookie_secret, i64 noundef 16, ptr noundef %68, i64 noundef %69, ptr noundef %70, i64 noundef 255, ptr noundef %71)
  %73 = icmp eq ptr %72, null
  br i1 %73, label %74, label %77

74:                                               ; preds = %56
  %75 = load ptr, ptr @bio_err, align 8, !tbaa !14
  %76 = call i32 (ptr, ptr, ...) @BIO_printf(ptr noundef %75, ptr noundef @.str.83)
  br label %78

77:                                               ; preds = %56
  store i32 1, ptr %13, align 4, !tbaa !3
  br label %78

78:                                               ; preds = %77, %74
  %79 = load ptr, ptr %8, align 8, !tbaa !21
  call void @CRYPTO_free(ptr noundef %79, ptr noundef @.str.26, i32 noundef 899)
  %80 = load ptr, ptr %11, align 8, !tbaa !65
  call void @BIO_ADDR_free(ptr noundef %80)
  %81 = load i32, ptr %13, align 4, !tbaa !3
  store i32 %81, ptr %4, align 4
  store i32 1, ptr %14, align 4
  br label %82

82:                                               ; preds = %78, %46, %32, %20
  call void @llvm.lifetime.end.p0(i64 4, ptr %13) #10
  call void @llvm.lifetime.end.p0(i64 8, ptr %12) #10
  call void @llvm.lifetime.end.p0(i64 8, ptr %11) #10
  call void @llvm.lifetime.end.p0(i64 2, ptr %10) #10
  call void @llvm.lifetime.end.p0(i64 8, ptr %9) #10
  call void @llvm.lifetime.end.p0(i64 8, ptr %8) #10
  %83 = load i32, ptr %4, align 4
  ret i32 %83
}