; Function Attrs: nounwind uwtable
define range(i32 0, 2) i32 @generate_stateless_cookie_callback(ptr noundef %0, ptr noundef %1, ptr noundef %2) local_unnamed_addr #0 {
  %4 = alloca i64, align 8
  call void @llvm.lifetime.start.p0(i64 8, ptr nonnull %4) #6
  store i64 0, ptr %4, align 8, !tbaa !29
  %.b = load i1, ptr @cookie_initialized, align 4
  br i1 %.b, label %12, label %5

5:                                                ; preds = %3
  %6 = tail call i32 @RAND_bytes(ptr noundef nonnull @cookie_secret, i32 noundef 16) #6
  %7 = icmp slt i32 %6, 1
  br i1 %7, label %8, label %11

8:                                                ; preds = %5
  %9 = load ptr, ptr @bio_err, align 8, !tbaa !8
  %10 = tail call i32 (ptr, ptr, ...) @BIO_printf(ptr noundef %9, ptr noundef nonnull @.str.76) #6
  br label %47

11:                                               ; preds = %5
  store i1 true, ptr @cookie_initialized, align 4
  br label %12

12:                                               ; preds = %11, %3
  %13 = tail call i32 @SSL_is_dtls(ptr noundef %0) #6
  %.not = icmp eq i32 %13, 0
  br i1 %.not, label %23, label %14

14:                                               ; preds = %12
  %15 = tail call ptr @BIO_ADDR_new() #6
  %16 = icmp eq ptr %15, null
  br i1 %16, label %17, label %20

17:                                               ; preds = %14
  %18 = load ptr, ptr @bio_err, align 8, !tbaa !8
  %19 = tail call i32 (ptr, ptr, ...) @BIO_printf(ptr noundef %18, ptr noundef nonnull @.str.77) #6
  br label %47

20:                                               ; preds = %14
  %21 = tail call ptr @SSL_get_rbio(ptr noundef %0) #6
  %22 = tail call i64 @BIO_ctrl(ptr noundef %21, i32 noundef 46, i64 noundef 0, ptr noundef nonnull %15) #6
  br label %25

23:                                               ; preds = %12
  %24 = load ptr, ptr @ourpeer, align 8, !tbaa !45
  br label %25

25:                                               ; preds = %23, %20
  %.017 = phi ptr [ %15, %20 ], [ null, %23 ]
  %.016 = phi ptr [ %15, %20 ], [ %24, %23 ]
  %26 = call i32 @BIO_ADDR_rawaddress(ptr noundef %.016, ptr noundef null, ptr noundef nonnull %4) #6
  %.not20 = icmp eq i32 %26, 0
  br i1 %.not20, label %27, label %30

27:                                               ; preds = %25
  %28 = load ptr, ptr @bio_err, align 8, !tbaa !8
  %29 = call i32 (ptr, ptr, ...) @BIO_printf(ptr noundef %28, ptr noundef nonnull @.str.78) #6
  call void @BIO_ADDR_free(ptr noundef %.017) #6
  br label %47

30:                                               ; preds = %25
  %31 = load i64, ptr %4, align 8, !tbaa !29
  %.not21 = icmp eq i64 %31, 0
  br i1 %.not21, label %32, label %33

32:                                               ; preds = %30
  call void @OPENSSL_die(ptr noundef nonnull @.str.79, ptr noundef nonnull @.str.26, i32 noundef 882) #7
  unreachable

33:                                               ; preds = %30
  %34 = call zeroext i16 @BIO_ADDR_rawport(ptr noundef %.016) #6
  %35 = load i64, ptr %4, align 8, !tbaa !29
  %36 = add i64 %35, 2
  store i64 %36, ptr %4, align 8, !tbaa !29
  %37 = call ptr @app_malloc(i64 noundef %36, ptr noundef nonnull @.str.80) #6
  store i16 %34, ptr %37, align 1
  %38 = getelementptr inbounds nuw i8, ptr %37, i64 2
  %39 = call i32 @BIO_ADDR_rawaddress(ptr noundef %.016, ptr noundef nonnull %38, ptr noundef null) #6
  %40 = load i64, ptr %4, align 8, !tbaa !29
  %41 = call ptr @EVP_Q_mac(ptr noundef null, ptr noundef nonnull @.str.81, ptr noundef null, ptr noundef nonnull @.str.82, ptr noundef null, ptr noundef nonnull @cookie_secret, i64 noundef 16, ptr noundef nonnull %37, i64 noundef %40, ptr noundef %1, i64 noundef 255, ptr noundef %2) #6
  %42 = icmp eq ptr %41, null
  br i1 %42, label %43, label %46

43:                                               ; preds = %33
  %44 = load ptr, ptr @bio_err, align 8, !tbaa !8
  %45 = call i32 (ptr, ptr, ...) @BIO_printf(ptr noundef %44, ptr noundef nonnull @.str.83) #6
  br label %46

46:                                               ; preds = %33, %43
  %.0 = phi i32 [ 0, %43 ], [ 1, %33 ]
  call void @CRYPTO_free(ptr noundef nonnull %37, ptr noundef nonnull @.str.26, i32 noundef 899) #6
  call void @BIO_ADDR_free(ptr noundef %.017) #6
  br label %47

47:                                               ; preds = %46, %27, %17, %8
  %.018 = phi i32 [ 0, %17 ], [ %.0, %46 ], [ 0, %27 ], [ 0, %8 ]
  call void @llvm.lifetime.end.p0(i64 8, ptr nonnull %4) #6
  ret i32 %.018
}